; Function Attrs: mustprogress nofree norecurse nosync nounwind willreturn memory(readwrite, inaccessiblemem: none) uwtable
define hidden void @_ZN9Assembler10evpexpandwE11XMMRegister9KRegisterS0_bi(ptr noundef nonnull align 8 dereferenceable(40) %0, i32 %1, i32 %2, i32 %3, i1 noundef zeroext %4, i32 noundef %5) local_unnamed_addr #8 align 2 {
  %7 = alloca %class.InstructionAttr, align 8
  store i8 1, ptr %7, align 8
  %8 = getelementptr inbounds i8, ptr %7, i64 1
  %9 = load i32, ptr @UseAVX, align 4
  %10 = icmp slt i32 %9, 3
  %11 = zext i1 %10 to i8
  store i8 %11, ptr %8, align 1
  %12 = getelementptr inbounds i8, ptr %7, i64 2
  store i8 0, ptr %12, align 2
  %13 = getelementptr inbounds i8, ptr %7, i64 3
  store i8 1, ptr %13, align 1
  %14 = getelementptr inbounds i8, ptr %7, i64 4
  store i8 0, ptr %14, align 4
  %15 = getelementptr inbounds i8, ptr %7, i64 5
  %16 = getelementptr inbounds i8, ptr %7, i64 6
  store i8 1, ptr %16, align 2
  %17 = getelementptr inbounds i8, ptr %7, i64 7
  store i8 0, ptr %17, align 1
  %18 = getelementptr inbounds i8, ptr %7, i64 8
  store i32 %5, ptr %18, align 8
  %19 = getelementptr inbounds i8, ptr %7, i64 12
  store i32 24, ptr %19, align 4
  %20 = getelementptr inbounds i8, ptr %7, i64 16
  store i32 4, ptr %20, align 8
  %21 = getelementptr inbounds i8, ptr %7, i64 20
  store i32 0, ptr %21, align 4
  %22 = getelementptr inbounds i8, ptr %7, i64 24
  %23 = getelementptr inbounds i8, ptr %7, i64 32
  store ptr null, ptr %23, align 8
  store i8 1, ptr %15, align 1
  %24 = sext i32 %2 to i64
  %25 = getelementptr inbounds %"class.KRegister::KRegisterImpl", ptr getelementptr inbounds (i8, ptr @all_KRegisterImpls, i64 1), i64 %24
  %26 = ptrtoint ptr %25 to i64
  %27 = trunc i64 %26 to i32
  %28 = sub i32 %27, ptrtoint (ptr getelementptr inbounds (i8, ptr @all_KRegisterImpls, i64 1) to i32)
  %29 = and i32 %28, 7
  store i32 %29, ptr %22, align 8
  br i1 %4, label %30, label %31

30:                                               ; preds = %6
  store i8 0, ptr %16, align 2
  br label %31

31:                                               ; preds = %30, %6
  %32 = sext i32 %1 to i64
  %33 = getelementptr inbounds %"class.XMMRegister::XMMRegisterImpl", ptr getelementptr inbounds (i8, ptr @all_XMMRegisterImpls, i64 1), i64 %32
  %34 = ptrtoint ptr %33 to i64
  %35 = trunc i64 %34 to i32
  %36 = sub i32 %35, ptrtoint (ptr getelementptr inbounds (i8, ptr @all_XMMRegisterImpls, i64 1) to i32)
  %37 = sext i32 %3 to i64
  %38 = getelementptr inbounds %"class.XMMRegister::XMMRegisterImpl", ptr getelementptr inbounds (i8, ptr @all_XMMRegisterImpls, i64 1), i64 %37
  %39 = ptrtoint ptr %38 to i64
  %40 = trunc i64 %39 to i32
  %41 = sub i32 %40, ptrtoint (ptr getelementptr inbounds (i8, ptr @all_XMMRegisterImpls, i64 1) to i32)
  %42 = call noundef i32 @_ZN9Assembler21vex_prefix_and_encodeEiiiNS_13VexSimdPrefixENS_9VexOpcodeEP15InstructionAttrb(ptr noundef nonnull align 8 dereferenceable(40) %0, i32 noundef %36, i32 noundef 0, i32 noundef %41, i32 noundef 1, i32 noundef 2, ptr noundef nonnull %7, i1 noundef zeroext false)
  %43 = getelementptr inbounds i8, ptr %0, i64 8
  %44 = load ptr, ptr %43, align 8
  %45 = trunc nuw nsw i32 %42 to i8
  %.0.i2.i = or disjoint i8 %45, -64
  %46 = getelementptr inbounds i8, ptr %44, i64 16
  %47 = load ptr, ptr %46, align 8
  %48 = getelementptr inbounds i8, ptr %47, i64 1
  store i8 98, ptr %47, align 1
  %49 = getelementptr inbounds i8, ptr %47, i64 2
  store i8 %.0.i2.i, ptr %48, align 1
  store ptr %49, ptr %46, align 8
  %50 = load ptr, ptr %23, align 8
  %.not.i = icmp eq ptr %50, null
  br i1 %.not.i, label %_ZN15InstructionAttrD2Ev.exit, label %51

51:                                               ; preds = %31
  %52 = getelementptr inbounds i8, ptr %50, i64 32
  store ptr null, ptr %52, align 8
  br label %_ZN15InstructionAttrD2Ev.exit

_ZN15InstructionAttrD2Ev.exit:                    ; preds = %31, %51
  ret void
}